; Function Attrs: nounwind sspstrong uwtable
define dso_local i64 @rb_econv_substr_append(ptr noundef %0, i64 noundef %1, i64 noundef %2, i64 noundef %3, i64 noundef %4, i32 noundef %5) local_unnamed_addr #0 {
  %7 = alloca i64, align 8
  %8 = alloca ptr, align 8
  %9 = tail call i64 @rb_str_new_frozen(i64 noundef %1) #22
  store i64 %9, ptr %7, align 8, !tbaa !22
  %10 = inttoptr i64 %9 to ptr
  %11 = load i64, ptr %10, align 8, !tbaa !33, !noalias !120
  %12 = and i64 %11, 8192
  %.not.i.i = icmp eq i64 %12, 0
  %13 = getelementptr inbounds nuw i8, ptr %10, i64 24
  br i1 %.not.i.i, label %RSTRING_PTR.exit, label %14

14:                                               ; preds = %6
  %.sroa.2.0.copyload.i = load ptr, ptr %13, align 8
  br label %RSTRING_PTR.exit

RSTRING_PTR.exit:                                 ; preds = %6, %14
  %.sroa.2.0.i = phi ptr [ %.sroa.2.0.copyload.i, %14 ], [ %13, %6 ]
  %15 = getelementptr i8, ptr %.sroa.2.0.i, i64 %2
  %16 = tail call i64 @rb_econv_append(ptr noundef %0, ptr noundef %15, i64 noundef %3, i64 noundef %4, i32 noundef %5)
  call void @llvm.lifetime.start.p0(i64 8, ptr nonnull %8) #22
  store ptr %7, ptr %8, align 8, !tbaa !123
  call void asm sideeffect "", "*m,~{dirflag},~{fpsr},~{flags}"(ptr nonnull elementtype(ptr) %8) #22, !srcloc !124
  %17 = load ptr, ptr %8, align 8, !tbaa !123
  call void @llvm.lifetime.end.p0(i64 8, ptr nonnull %8) #22
  %18 = load volatile i64, ptr %17, align 8, !tbaa !22
  ret i64 %16
}